; Function Attrs: mustprogress null_pointer_is_valid sspstrong uwtable
define void @_ZNK18FilterTreeDelegate13setEditorDataEP7QWidgetRK11QModelIndex(ptr noundef align 8 dereferenceable_or_null(20) %0, ptr noundef %1, ptr noundef align 8 dereferenceable(24) %2) unnamed_addr #0 align 2 personality ptr @__gxx_personality_v0 {
  %4 = alloca %class.QString, align 8
  %5 = alloca %class.QVariant, align 8
  %.not = icmp ne ptr %1, null
  %6 = load i32, ptr %2, align 8
  %7 = icmp sgt i32 %6, -1
  %or.cond = select i1 %.not, i1 %7, i1 false
  %8 = getelementptr inbounds nuw i8, ptr %2, i64 4
  %9 = load i32, ptr %8, align 4
  %10 = icmp sgt i32 %9, -1
  %or.cond20 = select i1 %or.cond, i1 %10, i1 false
  %11 = getelementptr inbounds nuw i8, ptr %2, i64 16
  %12 = load ptr, ptr %11, align 8
  %13 = icmp ne ptr %12, null
  %or.cond23 = select i1 %or.cond20, i1 %13, i1 false
  br i1 %or.cond23, label %14, label %_ZNK11QModelIndex7isValidEv.exit.thread

14:                                               ; preds = %3
  tail call void @_ZNK19QStyledItemDelegate13setEditorDataEP7QWidgetRK11QModelIndex(ptr noundef align 8 dereferenceable_or_null(16) %0, ptr noundef nonnull %1, ptr noundef align 8 dereferenceable(24) %2)
  %15 = tail call noundef ptr @_ZNK11QMetaObject4castEPK7QObject(ptr noundef nonnull align 8 dereferenceable_or_null(56) @_ZN9QLineEdit16staticMetaObjectE, ptr noundef nonnull %1)
  %.not11 = icmp eq ptr %15, null
  br i1 %.not11, label %_ZNK11QModelIndex7isValidEv.exit.thread, label %16

16:                                               ; preds = %14
  %17 = tail call noundef ptr @_ZNK11QMetaObject4castEPK7QObject(ptr noundef nonnull align 8 dereferenceable_or_null(56) @_ZN9QLineEdit16staticMetaObjectE, ptr noundef nonnull %1)
  call void @llvm.lifetime.start.p0(i64 24, ptr nonnull %4) #21
  call void @llvm.lifetime.start.p0(i64 32, ptr nonnull %5) #21
  tail call void @llvm.experimental.noalias.scope.decl(metadata !37)
  %18 = load ptr, ptr %11, align 8, !noalias !37
  %.not.i = icmp eq ptr %18, null
  br i1 %.not.i, label %23, label %19

19:                                               ; preds = %16
  %20 = load ptr, ptr %18, align 8, !noalias !37
  %21 = getelementptr inbounds nuw i8, ptr %20, i64 144
  %22 = load ptr, ptr %21, align 8, !noalias !37
  call void %22(ptr dead_on_unwind nonnull writable sret(%class.QVariant) align 8 %5, ptr noundef nonnull align 8 dereferenceable_or_null(16) %18, ptr noundef align 8 dereferenceable(24) dereferenceable_or_null(24) %2, i32 noundef 0)
  br label %_ZNK11QModelIndex4dataEi.exit

23:                                               ; preds = %16
  call void @llvm.memset.p0.i64(ptr noundef nonnull align 8 dereferenceable(32) %5, i8 0, i64 24, i1 false), !alias.scope !37
  %24 = getelementptr inbounds nuw i8, ptr %5, i64 24
  store i64 2, ptr %24, align 8, !alias.scope !37
  br label %_ZNK11QModelIndex4dataEi.exit

_ZNK11QModelIndex4dataEi.exit:                    ; preds = %19, %23
  invoke void @_ZNK8QVariant8toStringEv(ptr dead_on_unwind nonnull writable sret(%class.QString) align 8 %4, ptr noundef nonnull align 8 dereferenceable_or_null(32) %5)
          to label %25 unwind label %31

25:                                               ; preds = %_ZNK11QModelIndex4dataEi.exit
  invoke void @_ZN9QLineEdit7setTextERK7QString(ptr noundef align 8 dereferenceable_or_null(40) %17, ptr noundef nonnull align 8 dereferenceable(24) %4)
          to label %26 unwind label %33

26:                                               ; preds = %25
  %27 = load ptr, ptr %4, align 8
  %.not.i.i.i = icmp eq ptr %27, null
  br i1 %.not.i.i.i, label %_ZN7QStringD2Ev.exit, label %_ZN17QArrayDataPointerIDsE5derefEv.exit.i.i

_ZN17QArrayDataPointerIDsE5derefEv.exit.i.i:      ; preds = %26
  %28 = atomicrmw sub ptr %27, i32 1 seq_cst, align 4
  %.not.i.i = icmp eq i32 %28, 1
  br i1 %.not.i.i, label %29, label %_ZN7QStringD2Ev.exit

29:                                               ; preds = %_ZN17QArrayDataPointerIDsE5derefEv.exit.i.i
  %30 = load ptr, ptr %4, align 8
  call void @_ZN10QArrayData10deallocateEPS_xx(ptr noundef %30, i64 noundef 2, i64 noundef 8) #21
  br label %_ZN7QStringD2Ev.exit

_ZN7QStringD2Ev.exit:                             ; preds = %26, %_ZN17QArrayDataPointerIDsE5derefEv.exit.i.i, %29
  call void @_ZN8QVariantD1Ev(ptr noundef nonnull align 8 dereferenceable_or_null(32) %5) #21
  call void @llvm.lifetime.end.p0(i64 32, ptr nonnull %5) #21
  call void @llvm.lifetime.end.p0(i64 24, ptr nonnull %4) #21
  br label %_ZNK11QModelIndex7isValidEv.exit.thread

31:                                               ; preds = %_ZNK11QModelIndex4dataEi.exit
  %32 = landingpad { ptr, i32 }
          cleanup
  br label %_ZN7QStringD2Ev.exit16

33:                                               ; preds = %25
  %34 = landingpad { ptr, i32 }
          cleanup
  %35 = load ptr, ptr %4, align 8
  %.not.i.i.i13 = icmp eq ptr %35, null
  br i1 %.not.i.i.i13, label %_ZN7QStringD2Ev.exit16, label %_ZN17QArrayDataPointerIDsE5derefEv.exit.i.i14

_ZN17QArrayDataPointerIDsE5derefEv.exit.i.i14:    ; preds = %33
  %36 = atomicrmw sub ptr %35, i32 1 seq_cst, align 4
  %.not.i.i15 = icmp eq i32 %36, 1
  br i1 %.not.i.i15, label %37, label %_ZN7QStringD2Ev.exit16

37:                                               ; preds = %_ZN17QArrayDataPointerIDsE5derefEv.exit.i.i14
  %38 = load ptr, ptr %4, align 8
  call void @_ZN10QArrayData10deallocateEPS_xx(ptr noundef %38, i64 noundef 2, i64 noundef 8) #21
  br label %_ZN7QStringD2Ev.exit16

_ZN7QStringD2Ev.exit16:                           ; preds = %37, %_ZN17QArrayDataPointerIDsE5derefEv.exit.i.i14, %33, %31
  %.pn = phi { ptr, i32 } [ %32, %31 ], [ %34, %33 ], [ %34, %_ZN17QArrayDataPointerIDsE5derefEv.exit.i.i14 ], [ %34, %37 ]
  call void @_ZN8QVariantD1Ev(ptr noundef nonnull align 8 dereferenceable_or_null(32) %5) #21
  call void @llvm.lifetime.end.p0(i64 32, ptr nonnull %5) #21
  call void @llvm.lifetime.end.p0(i64 24, ptr nonnull %4) #21
  resume { ptr, i32 } %.pn

_ZNK11QModelIndex7isValidEv.exit.thread:          ; preds = %3, %_ZN7QStringD2Ev.exit, %14
  ret void
}